******************************************************************************
            TI ARM Clang Linker PC v4.0.0                      
******************************************************************************
>> Linked Wed Jun 17 18:23:38 2026

OUTPUT FILE NAME:   <main.out>
ENTRY POINT SYMBOL: "_c_int00_noargs"  address: 00002609


MEMORY CONFIGURATION

         name            origin    length      used     unused   attr    fill
----------------------  --------  ---------  --------  --------  ----  --------
  FLASH                 00000000   00020000  000030b0  0001cf50  R  X
  SRAM                  20200000   00008000  0000177f  00006881  RW X
  BCR_CONFIG            41c00000   00000080  00000000  00000080  R   
  BSL_CONFIG            41c00100   00000080  00000000  00000080  R   


SEGMENT ALLOCATION MAP

run origin  load origin   length   init length attrs members
----------  ----------- ---------- ----------- ----- -------
00000000    00000000    000030b0   000030b0    r-x
  00000000    00000000    000000c0   000000c0    r-- .intvecs
  000000c0    000000c0    00002f68   00002f68    r-x .text
  00003028    00003028    00000070   00000070    r-- .rodata
  00003098    00003098    00000018   00000018    r-- .cinit
20200000    20200000    0000157f   00000000    rw-
  20200000    20200000    0000157f   00000000    rw- .bss
20207e00    20207e00    00000200   00000000    rw-
  20207e00    20207e00    00000200   00000000    rw- .stack


SECTION ALLOCATION MAP

 output                                  attributes/
section   page    origin      length       input sections
--------  ----  ----------  ----------   ----------------
.intvecs   0    00000000    000000c0     
                  00000000    000000c0     startup_mspm0g110x_ticlang.o (.intvecs)

.text      0    000000c0    00002f68     
                  000000c0    000001de     MSPM0G_Library.lib : UART_Interface.o (.text.UART_Interface_IRQ)
                  0000029e    00000002     libclang_rt.builtins.a : aeabi_div0.c.obj (.text.__aeabi_idiv0)
                  000002a0    0000017c     MSPM0G_Library.lib : UART_Interface.o (.text.UART_Interface_Initialize)
                  0000041c    0000015c     ti_msp_dl_config.o (.text.SYSCFG_DL_GPIO_init)
                  00000578    00000100     MSPM0G_Library.lib : Timer_Timeout.o (.text.Timer_Timeout_Inialize)
                  00000678    000000fe                        : I2C_Controller.o (.text.I2C_Controller_IRQ)
                  00000776    00000002     app.o (.text.cmd_data_setup)
                  00000778    000000e8     driverlib.a : dl_timer.o (.text.DL_Timer_initTimerMode)
                  00000860    000000dc     i2c_common.o (.text.i2c_read)
                  0000093c    000000d0     DB_board.o (.text.ads122c04_read)
                  00000a0c    000000c4     ti_msp_dl_config.o (.text.SYSCFG_DL_initPower)
                  00000ad0    000000bc     i2c_common.o (.text.i2c_write_verify)
                  00000b8c    000000b2     MSPM0G_Library.lib : SPI_Interface.o (.text.SPI_IRQ)
                  00000c3e    00000002     --HOLE-- [fill = 0]
                  00000c40    000000b0     i2c_common.o (.text.i2c_write)
                  00000cf0    000000ac     delay_timer.o (.text.Delay_Timer_Initialize)
                  00000d9c    000000a0     usb_mux.o (.text.usb_pins_init)
                  00000e3c    0000009c     adc_spi.o (.text.AD4115BCPZ_RL7_init)
                  00000ed8    00000098     MSPM0G_Library.lib : I2C_Controller.o (.text.I2C_Controller_Initialize)
                  00000f70    0000008c     usb.o (.text.usb_init)
                  00000ffc    00000088     MSPM0G_Library.lib : SPI_Interface.o (.text.SPI_Initialize)
                  00001084    00000078                        : UART_Interface.o (.text.UART_rxDMA_Initialize)
                  000010fc    00000078     DB_board.o (.text.current_source_2_select)
                  00001174    00000076     MSPM0G_Library.lib : SPI_Interface.o (.text.SPI_Transact)
                  000011ea    00000074                        : UART_Interface.o (.text.UART_txDMA_Initialize)
                  0000125e    00000070                        : I2C_Controller.o (.text.I2C_Controller_Start_Transmit)
                  000012ce    00000002     --HOLE-- [fill = 0]
                  000012d0    00000070                        : UART_Target.o (.text.UART_Target_Initialize)
                  00001340    0000006c     DB_board.o (.text.I2C_Wait_With_Timeout)
                  000013ac    0000006c     i2c_common.o (.text.I2C_Wait_With_Timeout)
                  00001418    0000006c     MSPM0G_Library.lib : UART_Target.o (.text.targetRxInProgressCb)
                  00001484    00000068     DB_board.o (.text.ads122c04_calibration)
                  000014ec    00000064     ti_msp_dl_config.o (.text.SYSCFG_DL_Daughter_I2C_init)
                  00001550    00000064     ti_msp_dl_config.o (.text.SYSCFG_DL_Master_I2C_init)
                  000015b4    00000064     MSPM0G_Library.lib : UART_Target.o (.text.UART_Target_AssignCallBacks)
                  00001618    00000064     uart_mux.o (.text.uart_pin_init)
                  0000167c    00000060     adc_spi.o (.text.AD4115_WriteReg16)
                  000016dc    00000060     ti_msp_dl_config.o (.text.SYSCFG_DL_UART_0_init)
                  0000173c    00000060     ti_msp_dl_config.o (.text.SYSCFG_DL_UART_3_init)
                  0000179c    0000005e     driverlib.a : dl_i2c.o (.text.DL_I2C_fillControllerTXFIFO)
                  000017fa    0000005a     MSPM0G_Library.lib : Timer_Timeout.o (.text.Timer_Timeout_Time_Set)
                  00001854    00000058                        : I2C_Controller.o (.text.getControllerStatus)
                  000018ac    00000054     adc_spi.o (.text.AD4115_ReadID)
                  00001900    00000054     driverlib.a : dl_spi.o (.text.DL_SPI_drainRXFIFO16)
                  00001954    00000054                 : dl_uart.o (.text.DL_UART_drainRXFIFO)
                  000019a8    00000054                 : dl_uart.o (.text.DL_UART_fillTXFIFO)
                  000019fc    00000054     maini2c.o (.text.reset_all)
                  00001a50    00000050     MSPM0G_Library.lib : I2C_Controller.o (.text.DL_I2C_startControllerTransfer)
                  00001aa0    0000004c     adc_spi.o (.text.AD4115_Reset)
                  00001aec    0000004c     ti_msp_dl_config.o (.text.DL_UART_setBaudRateDivisor)
                  00001b38    00000048     driverlib.a : dl_uart.o (.text.DL_UART_init)
                  00001b80    00000048     ti_msp_dl_config.o (.text.SYSCFG_DL_SPI_0_init)
                  00001bc8    00000048     DB_board.o (.text.ads122c04_init)
                  00001c10    00000046     MSPM0G_Library.lib : I2C_Controller.o (.text.I2C_Controller_Start_Receive)
                  00001c56    00000002     --HOLE-- [fill = 0]
                  00001c58    00000044     driverlib.a : dl_spi.o (.text.DL_SPI_init)
                  00001c9c    00000044     usb_mux.o (.text.usb_clear_selection)
                  00001ce0    00000040     libclang_rt.builtins.a : aeabi_uidivmod.S.obj (.text.__aeabi_uidivmod)
                  00001d20    0000003c     ti_msp_dl_config.o (.text.DL_GPIO_initPeripheralInputFunctionFeatures)
                  00001d5c    0000003c     driverlib.a : dl_i2c.o (.text.DL_I2C_flushTargetTXFIFO)
                  00001d98    0000003c     ti_msp_dl_config.o (.text.SYSCFG_DL_init)
                  00001dd4    0000003c     libc.a : autoinit.c.obj (.text:__TI_auto_init_nobinit_nopinit)
                  00001e10    0000003a     delay_timer.o (.text.Delay_Timer_Get)
                  00001e4a    00000002     --HOLE-- [fill = 0]
                  00001e4c    00000038     MSPM0G_Library.lib : UART_Interface.o (.text.DL_DMA_setTrigger)
                  00001e84    00000036                        : Timer_Timeout.o (.text.Timer_Timeout_Start)
                  00001eba    00000036                        : UART_Interface.o (.text.UART_Interface_Stop_Receive)
                  00001ef0    00000034                        : UART_Interface.o (.text.DL_DMA_configMode)
                  00001f24    00000034     ti_msp_dl_config.o (.text.SYSCFG_DL_TIMER_0_init)
                  00001f58    00000034     ti_msp_dl_config.o (.text.SYSCFG_DL_TIMER_1_init)
                  00001f8c    00000034     ti_msp_dl_config.o (.text.SYSCFG_DL_TIMER_2_init)
                  00001fc0    00000034     MSPM0G_Library.lib : UART_Target.o (.text.timerCallback)
                  00001ff4    00000032                        : UART_Interface.o (.text.DL_DMA_setDestWidth)
                  00002026    00000030                        : UART_Interface.o (.text.DL_DMA_setDestIncrement)
                  00002056    00000030                        : UART_Interface.o (.text.DL_DMA_setSrcWidth)
                  00002086    00000002     --HOLE-- [fill = 0]
                  00002088    00000030     ti_msp_dl_config.o (.text.DL_SPI_setFIFOThreshold)
                  000020b8    00000030     MSPM0G_Library.lib : UART_Target.o (.text.targetRxDoneCb)
                  000020e8    00000030                        : UART_Target.o (.text.targetTxDoneCb)
                  00002118    0000002e                        : UART_Interface.o (.text.DL_DMA_setSrcIncrement)
                  00002146    0000002e     maini2c.o (.text.io_expander_init)
                  00002174    0000002c     MSPM0G_Library.lib : I2C_Controller.o (.text.__NVIC_ClearPendingIRQ)
                  000021a0    0000002c                        : SPI_Interface.o (.text.__NVIC_ClearPendingIRQ)
                  000021cc    0000002c                        : Timer_Timeout.o (.text.__NVIC_ClearPendingIRQ)
                  000021f8    0000002c                        : UART_Interface.o (.text.__NVIC_ClearPendingIRQ)
                  00002224    0000002c     delay_timer.o (.text.__NVIC_ClearPendingIRQ)
                  00002250    0000002c     MSPM0G_Library.lib : I2C_Controller.o (.text.__NVIC_EnableIRQ)
                  0000227c    0000002c                        : SPI_Interface.o (.text.__NVIC_EnableIRQ)
                  000022a8    0000002c                        : Timer_Timeout.o (.text.__NVIC_EnableIRQ)
                  000022d4    0000002c                        : UART_Interface.o (.text.__NVIC_EnableIRQ)
                  00002300    0000002c     delay_timer.o (.text.__NVIC_EnableIRQ)
                  0000232c    0000002c     app.o (.text.app_init)
                  00002358    0000002a     ti_msp_dl_config.o (.text.SYSCFG_DL_SYSCTL_init)
                  00002382    0000002a     MSPM0G_Library.lib : Timer_Timeout.o (.text.Timer_Timeout_IRQ)
                  000023ac    0000002a                        : Timer_Timeout.o (.text.Timer_Timeout_reStart)
                  000023d6    0000002a                        : I2C_Controller.o (.text.waitForControllerToIdle)
                  00002400    00000028                        : I2C_Controller.o (.text.DL_Common_updateReg)
                  00002428    00000028                        : Timer_Timeout.o (.text.DL_Common_updateReg)
                  00002450    00000028                        : UART_Interface.o (.text.DL_Common_updateReg)
                  00002478    00000028     ti_msp_dl_config.o (.text.DL_Common_updateReg)
                  000024a0    00000028     MSPM0G_Library.lib : UART_Interface.o (.text.DL_DMA_setDestAddr)
                  000024c8    00000028                        : UART_Interface.o (.text.DL_DMA_setSrcAddr)
                  000024f0    00000028                        : I2C_Controller.o (.text.DL_I2C_setControllerRXFIFOThreshold)
                  00002518    00000028     ti_msp_dl_config.o (.text.DL_I2C_setControllerRXFIFOThreshold)
                  00002540    00000028     MSPM0G_Library.lib : I2C_Controller.o (.text.DL_I2C_setControllerTXFIFOThreshold)
                  00002568    00000028     ti_msp_dl_config.o (.text.DL_I2C_setControllerTXFIFOThreshold)
                  00002590    00000028     ti_msp_dl_config.o (.text.DL_UART_setRXFIFOThreshold)
                  000025b8    00000028     ti_msp_dl_config.o (.text.DL_UART_setTXFIFOThreshold)
                  000025e0    00000028     MSPM0G_Library.lib : UART_Target.o (.text.targetTxInProgressCb)
                  00002608    00000028     libc.a : boot_cortex_m.c.obj (.text:_c_int00_noargs)
                  00002630    00000026     MSPM0G_Library.lib : UART_Interface.o (.text.DL_DMA_disableChannel)
                  00002656    00000026     ti_msp_dl_config.o (.text.DL_I2C_setAnalogGlitchFilterPulseWidth)
                  0000267c    00000026     driverlib.a : dl_i2c.o (.text.DL_I2C_setClockConfig)
                  000026a2    00000002     --HOLE-- [fill = 0]
                  000026a4    00000024     ti_msp_dl_config.o (.text.DL_SPI_setBitRateSerialClockDivider)
                  000026c8    00000024     delay_timer.o (.text.Delay_Timer_IRQ)
                  000026ec    00000024     DB_board.o (.text.dac_set)
                  00002710    00000024     DB_board.o (.text.io_expander_config)
                  00002734    00000024     maini2c.o (.text.io_expander_config)
                  00002758    00000020     ti_msp_dl_config.o (.text.DL_GPIO_initPeripheralInputFunction)
                  00002778    00000020     MSPM0G_Library.lib : Timer_Timeout.o (.text.DL_Timer_setCounterValueAfterEnable)
                  00002798    00000020     libc.a : memcmp.c.obj (.text.memcmp)
                  000027b8    0000001e     ti_msp_dl_config.o (.text.DL_UART_setOversampling)
                  000027d6    00000002     --HOLE-- [fill = 0]
                  000027d8    0000001c     ti_msp_dl_config.o (.text.DL_GPIO_enableHiZ)
                  000027f4    0000001c     ti_msp_dl_config.o (.text.DL_GPIO_initPeripheralOutputFunction)
                  00002810    0000001c     MSPM0G_Library.lib : I2C_Controller.o (.text.DL_I2C_enableInterrupt)
                  0000282c    0000001c     ti_msp_dl_config.o (.text.DL_I2C_enableInterrupt)
                  00002848    0000001c     MSPM0G_Library.lib : I2C_Controller.o (.text.DL_I2C_isControllerRXFIFOEmpty)
                  00002864    0000001c     ti_msp_dl_config.o (.text.DL_SPI_enableInterrupt)
                  00002880    0000001c     ti_msp_dl_config.o (.text.DL_SYSCTL_setMCLKDivider)
                  0000289c    0000001c     ti_msp_dl_config.o (.text.DL_SYSCTL_setSYSOSCFreq)
                  000028b8    0000001c     ti_msp_dl_config.o (.text.DL_SYSCTL_setULPCLKDivider)
                  000028d4    0000001c     MSPM0G_Library.lib : Timer_Timeout.o (.text.DL_Timer_disableInterrupt)
                  000028f0    0000001c                        : Timer_Timeout.o (.text.DL_Timer_enableInterrupt)
                  0000290c    0000001c     delay_timer.o (.text.DL_Timer_enableInterrupt)
                  00002928    0000001c     ti_msp_dl_config.o (.text.DL_Timer_enableInterrupt)
                  00002944    0000001c     driverlib.a : dl_timer.o (.text.DL_Timer_setClockConfig)
                  00002960    0000001c     ti_msp_dl_config.o (.text.DL_UART_enableInterrupt)
                  0000297c    0000001c     empty.o (.text.main)
                  00002998    0000001a     DB_board.o (.text.current_10ma_set)
                  000029b2    00000018     adc_spi.o (.text.AD4115_Wait)
                  000029ca    00000002     --HOLE-- [fill = 0]
                  000029cc    00000018     adc_spi.o (.text.DL_GPIO_enableOutput)
                  000029e4    00000018     ti_msp_dl_config.o (.text.DL_GPIO_enableOutput)
                  000029fc    00000018     uart_mux.o (.text.DL_GPIO_enableOutput)
                  00002a14    00000018     usb_mux.o (.text.DL_GPIO_enableOutput)
                  00002a2c    00000018     ti_msp_dl_config.o (.text.DL_GPIO_enablePower)
                  00002a44    00000018     adc_spi.o (.text.DL_GPIO_initDigitalOutput)
                  00002a5c    00000018     ti_msp_dl_config.o (.text.DL_GPIO_initDigitalOutput)
                  00002a74    00000018     uart_mux.o (.text.DL_GPIO_initDigitalOutput)
                  00002a8c    00000018     usb_mux.o (.text.DL_GPIO_initDigitalOutput)
                  00002aa4    00000018     ti_msp_dl_config.o (.text.DL_GPIO_reset)
                  00002abc    00000018     adc_spi.o (.text.DL_GPIO_setPins)
                  00002ad4    00000018     ti_msp_dl_config.o (.text.DL_GPIO_setPins)
                  00002aec    00000018     ti_msp_dl_config.o (.text.DL_I2C_enableAnalogGlitchFilter)
                  00002b04    00000018     ti_msp_dl_config.o (.text.DL_I2C_enableController)
                  00002b1c    00000018     ti_msp_dl_config.o (.text.DL_I2C_enableControllerClockStretching)
                  00002b34    00000018     ti_msp_dl_config.o (.text.DL_I2C_enablePower)
                  00002b4c    00000018     ti_msp_dl_config.o (.text.DL_I2C_reset)
                  00002b64    00000018     ti_msp_dl_config.o (.text.DL_I2C_setTimerPeriod)
                  00002b7c    00000018     ti_msp_dl_config.o (.text.DL_SPI_enable)
                  00002b94    00000018     ti_msp_dl_config.o (.text.DL_SPI_enablePower)
                  00002bac    00000018     ti_msp_dl_config.o (.text.DL_SPI_reset)
                  00002bc4    00000018     ti_msp_dl_config.o (.text.DL_SYSCTL_setBORThreshold)
                  00002bdc    00000018     MSPM0G_Library.lib : Timer_Timeout.o (.text.DL_Timer_clearInterruptStatus)
                  00002bf4    00000018     delay_timer.o (.text.DL_Timer_enablePower)
                  00002c0c    00000018     ti_msp_dl_config.o (.text.DL_Timer_enablePower)
                  00002c24    00000018     ti_msp_dl_config.o (.text.DL_Timer_reset)
                  00002c3c    00000018     MSPM0G_Library.lib : Timer_Timeout.o (.text.DL_Timer_setLoadValue)
                  00002c54    00000018                        : Timer_Timeout.o (.text.DL_Timer_startCounter)
                  00002c6c    00000018     delay_timer.o (.text.DL_Timer_startCounter)
                  00002c84    00000018     MSPM0G_Library.lib : Timer_Timeout.o (.text.DL_Timer_stopCounter)
                  00002c9c    00000018     ti_msp_dl_config.o (.text.DL_UART_enableFIFOs)
                  00002cb4    00000018     ti_msp_dl_config.o (.text.DL_UART_enablePower)
                  00002ccc    00000018     ti_msp_dl_config.o (.text.DL_UART_reset)
                  00002ce4    00000018     i2c_common.o (.text.i2c0_init)
                  00002cfc    00000018     i2c_common.o (.text.i2c1_init)
                  00002d14    00000016     MSPM0G_Library.lib : SPI_Interface.o (.text.DL_SPI_transmitData16)
                  00002d2a    00000016     ti_msp_dl_config.o (.text.DL_UART_enable)
                  00002d40    00000014     adc_spi.o (.text.DL_GPIO_clearPins)
                  00002d54    00000014     ti_msp_dl_config.o (.text.DL_GPIO_clearPins)
                  00002d68    00000014     uart_mux.o (.text.DL_GPIO_clearPins)
                  00002d7c    00000014     usb_mux.o (.text.DL_GPIO_clearPins)
                  00002d90    00000014     MSPM0G_Library.lib : I2C_Controller.o (.text.DL_I2C_getControllerStatus)
                  00002da4    00000014                        : I2C_Controller.o (.text.DL_I2C_receiveControllerData)
                  00002db8    00000014     ti_msp_dl_config.o (.text.DL_I2C_resetControllerTransfer)
                  00002dcc    00000014     MSPM0G_Library.lib : SPI_Interface.o (.text.DL_SPI_receiveData16)
                  00002de0    00000014     ti_msp_dl_config.o (.text.DL_SYSCTL_disableSYSPLL)
                  00002df4    00000014     delay_timer.o (.text.DL_Timer_enableClock)
                  00002e08    00000014     ti_msp_dl_config.o (.text.DL_Timer_enableClock)
                  00002e1c    00000012     MSPM0G_Library.lib : I2C_Controller.o (.text.DL_I2C_getPendingInterrupt)
                  00002e2e    00000012                        : SPI_Interface.o (.text.DL_SPI_getPendingInterrupt)
                  00002e40    00000012     driverlib.a : dl_spi.o (.text.DL_SPI_setClockConfig)
                  00002e52    00000012     MSPM0G_Library.lib : Timer_Timeout.o (.text.DL_Timer_getPendingInterrupt)
                  00002e64    00000012     delay_timer.o (.text.DL_Timer_getPendingInterrupt)
                  00002e76    00000012     delay_timer.o (.text.DL_Timer_getTimerCount)
                  00002e88    00000012     MSPM0G_Library.lib : UART_Interface.o (.text.DL_UART_getPendingInterrupt)
                  00002e9a    00000012     driverlib.a : dl_uart.o (.text.DL_UART_setClockConfig)
                  00002eac    00000012     delay_timer.o (.text.Delay_Timer_Start)
                  00002ebe    00000012     libc.a : memcpy16.S.obj (.text:TI_memcpy_small)
                  00002ed0    00000010     ti_msp_dl_config.o (.text.DL_SYSCTL_disableHFXT)
                  00002ee0    00000010     app.o (.text.I2C0_IRQHandler)
                  00002ef0    00000010     app.o (.text.I2C1_IRQHandler)
                  00002f00    00000010     MSPM0G_Library.lib : I2C_Controller.o (.text.I2C_Controller_Transaction_Done)
                  00002f10    00000010     app.o (.text.SPI0_IRQHandler)
                  00002f20    00000010     app.o (.text.TIMG0_IRQHandler)
                  00002f30    00000010     app.o (.text.TIMG6_IRQHandler)
                  00002f40    00000010     app.o (.text.TIMG7_IRQHandler)
                  00002f50    00000010     app.o (.text.UART0_IRQHandler)
                  00002f60    00000010     app.o (.text.UART3_IRQHandler)
                  00002f70    00000010     MSPM0G_Library.lib : UART_Interface.o (.text.defaultUartCallBack)
                  00002f80    00000010                        : UART_Interface.o (.text.defaultUartInprogressCallback)
                  00002f90    00000010     libc.a : copy_zero_init.c.obj (.text:decompress:ZI)
                  00002fa0    0000000e            : memset16.S.obj (.text:TI_memset_small)
                  00002fae    00000002     --HOLE-- [fill = 0]
                  00002fb0    0000000c     libclang_rt.builtins.a : aeabi_memset.S.obj (.text.__aeabi_memclr)
                  00002fbc    0000000c     DB_board.o (.text.db_board_init)
                  00002fc8    0000000c     MSPM0G_Library.lib : Timer_Timeout.o (.text.defaultTimerSingleTriggerCB)
                  00002fd4    0000000c                        : I2C_Controller.o (.text.noActionController)
                  00002fe0    0000000c                        : SPI_Interface.o (.text.noActionSPIInterface)
                  00002fec    0000000a     driverlib.a : dl_common.o (.text.DL_Common_delayCycles)
                  00002ff6    0000000a     DB_board.o (.text.io_expander_daughter_config)
                  00003000    00000008     libclang_rt.builtins.a : aeabi_memcpy.S.obj (.text.__aeabi_memcpy)
                  00003008    00000004     startup_mspm0g110x_ticlang.o (.text.Default_Handler)
                  0000300c    00000004     startup_mspm0g110x_ticlang.o (.text.Reset_Handler)
                  00003010    00000010     libc.a : boot_cortex_m.c.obj (.tramp._c_int00_noargs.1)
                  00003020    00000004            : pre_init.c.obj (.text._system_pre_init)
                  00003024    00000004            : exit.c.obj (.text:abort)

.cinit     0    00003098    00000018     
                  00003098    00000008     (.cinit..bss.load) [load image, compression = zero_init]
                  000030a0    00000004     (__TI_handler_table)
                  000030a4    00000008     (__TI_cinit_table)
                  000030ac    00000004     --HOLE-- [fill = 0]

.rodata    0    00003028    00000070     
                  00003028    00000014     ti_msp_dl_config.o (.rodata.gTIMER_0TimerConfig)
                  0000303c    00000014     ti_msp_dl_config.o (.rodata.gTIMER_1TimerConfig)
                  00003050    00000014     ti_msp_dl_config.o (.rodata.gTIMER_2TimerConfig)
                  00003064    0000000a     ti_msp_dl_config.o (.rodata.gSPI_0_config)
                  0000306e    0000000a     ti_msp_dl_config.o (.rodata.gUART_0Config)
                  00003078    0000000a     ti_msp_dl_config.o (.rodata.gUART_3Config)
                  00003082    00000003     ti_msp_dl_config.o (.rodata.gTIMER_0ClockConfig)
                  00003085    00000003     ti_msp_dl_config.o (.rodata.gTIMER_1ClockConfig)
                  00003088    00000003     ti_msp_dl_config.o (.rodata.gTIMER_2ClockConfig)
                  0000308b    00000002     ti_msp_dl_config.o (.rodata.gDaughter_I2CClockConfig)
                  0000308d    00000002     ti_msp_dl_config.o (.rodata.gMaster_I2CClockConfig)
                  0000308f    00000002     ti_msp_dl_config.o (.rodata.gSPI_0_clockConfig)
                  00003091    00000002     ti_msp_dl_config.o (.rodata.gUART_0ClockConfig)
                  00003093    00000002     ti_msp_dl_config.o (.rodata.gUART_3ClockConfig)
                  00003095    00000003     --HOLE-- [fill = 0]

.init_array 
*          0    00000000    00000000     UNINITIALIZED

.binit     0    00000000    00000000     

.bss       0    20200000    0000157f     UNINITIALIZED
                  20200000    000013ac     (.common:USB_DATA)
                  202013ac    00000048     (.common:glUartTarget)
                  202013f4    00000034     (.common:UART_MUX)
                  20201428    00000034     (.common:USB_UART)
                  2020145c    00000030     (.common:gUART_3Backup)
                  2020148c    00000024     (.common:ADC)
                  202014b0    00000024     (.common:UART_MUX_Timeout)
                  202014d4    00000024     (.common:USB_BUFFER)
                  202014f8    00000024     (.common:USB_Timeout)
                  2020151c    00000020     (.common:Daughter_I2C)
                  2020153c    00000020     (.common:Master_MCU)
                  2020155c    00000010     i2c_common.o (.bss.tx_buffer)
                  2020156c    00000010     i2c_common.o (.bss.verify_data)
                  2020157c    00000003     (.common:glUartTargetIndexFromTimerIndex)

.stack     0    20207e00    00000200     UNINITIALIZED
                  20207e00    00000004     libc.a : boot_cortex_m.c.obj (.stack)
                  20207e04    000001fc     --HOLE--

__llvm_prf_cnts 
*          0    20200000    00000000     UNINITIALIZED

__llvm_prf_bits 
*          0    20200000    00000000     UNINITIALIZED

MODULE SUMMARY

       Module                         code    ro data   rw data
       ------                         ----    -------   -------
    .\
       DB_board.o                     732     0         5348   
       ti_msp_dl_config.o             2636    109       48     
       i2c_common.o                   740     0         32     
       adc_spi.o                      528     0         0      
       delay_timer.o                  504     0         0      
       usb_mux.o                      296     0         0      
       startup_mspm0g110x_ticlang.o   8       192       0      
       app.o                          174     0         0      
       uart_mux.o                     168     0         0      
       maini2c.o                      166     0         0      
       usb.o                          140     0         0      
       empty.o                        28      0         0      
    +--+------------------------------+-------+---------+---------+
       Total:                         6120    301       5428   
                                                               
    C:/ti/mspm0_sdk_2_00_00_03/source/ti/driverlib/lib/ticlang/m0p/mspm0g1x0x_g3x0x/driverlib.a
       dl_timer.o                     260     0         0      
       dl_uart.o                      258     0         0      
       dl_i2c.o                       192     0         0      
       dl_spi.o                       170     0         0      
       dl_common.o                    10      0         0      
    +--+------------------------------+-------+---------+---------+
       Total:                         890     0         0      
                                                               
    C:\ti\ccstheia151\ccs\tools\compiler\ti-cgt-armllvm_4.0.0.LTS\lib\armv6m-ti-none-eabi/c/libc.a
       autoinit.c.obj                 60      0         0      
       boot_cortex_m.c.obj            56      0         0      
       memcmp.c.obj                   32      0         0      
       memcpy16.S.obj                 18      0         0      
       copy_zero_init.c.obj           16      0         0      
       memset16.S.obj                 14      0         0      
       exit.c.obj                     4       0         0      
       pre_init.c.obj                 4       0         0      
    +--+------------------------------+-------+---------+---------+
       Total:                         204     0         0      
                                                               
    C:\ti\ccstheia151\ccs\tools\compiler\ti-cgt-armllvm_4.0.0.LTS\lib\armv6m-ti-none-eabi/libclang_rt.builtins.a
       aeabi_uidivmod.S.obj           64      0         0      
       aeabi_memset.S.obj             12      0         0      
       aeabi_memcpy.S.obj             8       0         0      
       aeabi_div0.c.obj               2       0         0      
    +--+------------------------------+-------+---------+---------+
       Total:                         86      0         0      
                                                               
    D:/Metron_firmware/MSPM0G_Library/Debug/MSPM0G_Library.lib
       UART_Interface.o               1744    0         0      
       I2C_Controller.o               1148    0         0      
       Timer_Timeout.o                826     0         0      
       SPI_Interface.o                592     0         0      
       UART_Target.o                  508     0         75     
    +--+------------------------------+-------+---------+---------+
       Total:                         4818    0         75     
                                                               
       Stack:                         0       0         512    
       Linker Generated:              0       20        0      
    +--+------------------------------+-------+---------+---------+
       Grand Total:                   12118   321       6015   


LINKER GENERATED COPY TABLES

__TI_cinit_table @ 000030a4 records: 1, size/record: 8, table size: 8
	.bss: load addr=00003098, load size=00000008 bytes, run addr=20200000, run size=0000157f bytes, compression=zero_init


LINKER GENERATED HANDLER TABLE

__TI_handler_table @ 000030a0 records: 1, size/record: 4, table size: 4
	index: 0, handler: __TI_zero_init


FAR CALL TRAMPOLINES

callee name               trampoline name
   callee addr  tramp addr   call addr  call info
--------------  -----------  ---------  ----------------
_c_int00_noargs           $Tramp$TT$L$PI$$_c_int00_noargs
   00002609     00003010     0000300c   startup_mspm0g110x_ticlang.o (.text.Reset_Handler)

[1 trampolines]
[1 trampoline calls]


GLOBAL SYMBOLS: SORTED ALPHABETICALLY BY Name 

address   name                           
-------   ----                           
00000e3d  AD4115BCPZ_RL7_init            
000018ad  AD4115_ReadID                  
2020148c  ADC                            
00003009  ADC0_IRQHandler                
00003009  ADC1_IRQHandler                
00003024  C$$EXIT                        
00002fed  DL_Common_delayCycles          
0000179d  DL_I2C_fillControllerTXFIFO    
00001d5d  DL_I2C_flushTargetTXFIFO       
0000267d  DL_I2C_setClockConfig          
00001901  DL_SPI_drainRXFIFO16           
00001c59  DL_SPI_init                    
00002e41  DL_SPI_setClockConfig          
00000779  DL_Timer_initTimerMode         
00002945  DL_Timer_setClockConfig        
00001955  DL_UART_drainRXFIFO            
000019a9  DL_UART_fillTXFIFO             
00001b39  DL_UART_init                   
00002e9b  DL_UART_setClockConfig         
00003009  DMA_IRQHandler                 
2020151c  Daughter_I2C                   
00003009  Default_Handler                
00001e11  Delay_Timer_Get                
000026c9  Delay_Timer_IRQ                
00000cf1  Delay_Timer_Initialize         
00002ead  Delay_Timer_Start              
00003009  GROUP0_IRQHandler              
00003009  GROUP1_IRQHandler              
00003009  HardFault_Handler              
00002ee1  I2C0_IRQHandler                
00002ef1  I2C1_IRQHandler                
00000679  I2C_Controller_IRQ             
00000ed9  I2C_Controller_Initialize      
00001c11  I2C_Controller_Start_Receive   
0000125f  I2C_Controller_Start_Transmit  
00002f01  I2C_Controller_Transaction_Done
2020153c  Master_MCU                     
00003009  NMI_Handler                    
00003009  PendSV_Handler                 
00003009  RTC_IRQHandler                 
0000300d  Reset_Handler                  
00002f11  SPI0_IRQHandler                
00003009  SPI1_IRQHandler                
00000b8d  SPI_IRQ                        
00000ffd  SPI_Initialize                 
00001175  SPI_Transact                   
00003009  SVC_Handler                    
000014ed  SYSCFG_DL_Daughter_I2C_init    
0000041d  SYSCFG_DL_GPIO_init            
00001551  SYSCFG_DL_Master_I2C_init      
00001b81  SYSCFG_DL_SPI_0_init           
00002359  SYSCFG_DL_SYSCTL_init          
00001f25  SYSCFG_DL_TIMER_0_init         
00001f59  SYSCFG_DL_TIMER_1_init         
00001f8d  SYSCFG_DL_TIMER_2_init         
000016dd  SYSCFG_DL_UART_0_init          
0000173d  SYSCFG_DL_UART_3_init          
00001d99  SYSCFG_DL_init                 
00000a0d  SYSCFG_DL_initPower            
00003009  SysTick_Handler                
00003009  TIMA0_IRQHandler               
00003009  TIMA1_IRQHandler               
00002f21  TIMG0_IRQHandler               
00003009  TIMG12_IRQHandler              
00002f31  TIMG6_IRQHandler               
00002f41  TIMG7_IRQHandler               
00003009  TIMG8_IRQHandler               
00002ebf  TI_memcpy_small                
00002fa1  TI_memset_small                
00002383  Timer_Timeout_IRQ              
00000579  Timer_Timeout_Inialize         
00001e85  Timer_Timeout_Start            
000017fb  Timer_Timeout_Time_Set         
000023ad  Timer_Timeout_reStart          
00002f51  UART0_IRQHandler               
00003009  UART1_IRQHandler               
00003009  UART2_IRQHandler               
00002f61  UART3_IRQHandler               
000000c1  UART_Interface_IRQ             
000002a1  UART_Interface_Initialize      
00001ebb  UART_Interface_Stop_Receive    
202013f4  UART_MUX                       
202014b0  UART_MUX_Timeout               
000015b5  UART_Target_AssignCallBacks    
000012d1  UART_Target_Initialize         
00001085  UART_rxDMA_Initialize          
000011eb  UART_txDMA_Initialize          
202014d4  USB_BUFFER                     
20200000  USB_DATA                       
202014f8  USB_Timeout                    
20201428  USB_UART                       
20208000  __STACK_END                    
00000200  __STACK_SIZE                   
00000000  __TI_ATRegion0_region_sz       
00000000  __TI_ATRegion0_src_addr        
00000000  __TI_ATRegion0_trg_addr        
00000000  __TI_ATRegion1_region_sz       
00000000  __TI_ATRegion1_src_addr        
00000000  __TI_ATRegion1_trg_addr        
00000000  __TI_ATRegion2_region_sz       
00000000  __TI_ATRegion2_src_addr        
00000000  __TI_ATRegion2_trg_addr        
000030a4  __TI_CINIT_Base                
000030ac  __TI_CINIT_Limit               
000030ac  __TI_CINIT_Warm                
000030a0  __TI_Handler_Table_Base        
000030a4  __TI_Handler_Table_Limit       
00001dd5  __TI_auto_init_nobinit_nopinit 
ffffffff  __TI_pprof_out_hndl            
ffffffff  __TI_prof_data_size            
ffffffff  __TI_prof_data_start           
00000000  __TI_static_base__             
00002f91  __TI_zero_init                 
0000029f  __aeabi_idiv0                  
00002fb1  __aeabi_memclr                 
00002fb1  __aeabi_memclr4                
00002fb1  __aeabi_memclr8                
00003001  __aeabi_memcpy                 
00003001  __aeabi_memcpy4                
00003001  __aeabi_memcpy8                
00001ce1  __aeabi_uidiv                  
00001ce1  __aeabi_uidivmod               
ffffffff  __binit__                      
UNDEFED   __mpu_init                     
20207e00  __stack                        
20200000  __start___llvm_prf_bits        
20200000  __start___llvm_prf_cnts        
20200000  __stop___llvm_prf_bits         
20200000  __stop___llvm_prf_cnts         
00002609  _c_int00_noargs                
UNDEFED   _system_post_cinit             
00003021  _system_pre_init               
00003025  abort                          
00001485  ads122c04_calibration          
00001bc9  ads122c04_init                 
0000093d  ads122c04_read                 
0000232d  app_init                       
ffffffff  binit                          
00000777  cmd_data_setup                 
00002999  current_10ma_set               
000010fd  current_source_2_select        
000026ed  dac_set                        
00002fbd  db_board_init                  
00002fc9  defaultTimerSingleTriggerCB    
00002f71  defaultUartCallBack            
00002f81  defaultUartInprogressCallback  
2020145c  gUART_3Backup                  
00001855  getControllerStatus            
202013ac  glUartTarget                   
2020157c  glUartTargetIndexFromTimerIndex
00002ce5  i2c0_init                      
00002cfd  i2c1_init                      
00000861  i2c_read                       
00000c41  i2c_write                      
00000ad1  i2c_write_verify               
00000000  interruptVectors               
00002ff7  io_expander_daughter_config    
00002147  io_expander_init               
0000297d  main                           
00002799  memcmp                         
00002fd5  noActionController             
00002fe1  noActionSPIInterface           
000019fd  reset_all                      
000020b9  targetRxDoneCb                 
00001419  targetRxInProgressCb           
000020e9  targetTxDoneCb                 
000025e1  targetTxInProgressCb           
00001fc1  timerCallback                  
00001619  uart_pin_init                  
00000f71  usb_init                       
00000d9d  usb_pins_init                  
000023d7  waitForControllerToIdle        


GLOBAL SYMBOLS: SORTED BY Symbol Address 

address   name                           
-------   ----                           
00000000  __TI_ATRegion0_region_sz       
00000000  __TI_ATRegion0_src_addr        
00000000  __TI_ATRegion0_trg_addr        
00000000  __TI_ATRegion1_region_sz       
00000000  __TI_ATRegion1_src_addr        
00000000  __TI_ATRegion1_trg_addr        
00000000  __TI_ATRegion2_region_sz       
00000000  __TI_ATRegion2_src_addr        
00000000  __TI_ATRegion2_trg_addr        
00000000  __TI_static_base__             
00000000  interruptVectors               
000000c1  UART_Interface_IRQ             
00000200  __STACK_SIZE                   
0000029f  __aeabi_idiv0                  
000002a1  UART_Interface_Initialize      
0000041d  SYSCFG_DL_GPIO_init            
00000579  Timer_Timeout_Inialize         
00000679  I2C_Controller_IRQ             
00000777  cmd_data_setup                 
00000779  DL_Timer_initTimerMode         
00000861  i2c_read                       
0000093d  ads122c04_read                 
00000a0d  SYSCFG_DL_initPower            
00000ad1  i2c_write_verify               
00000b8d  SPI_IRQ                        
00000c41  i2c_write                      
00000cf1  Delay_Timer_Initialize         
00000d9d  usb_pins_init                  
00000e3d  AD4115BCPZ_RL7_init            
00000ed9  I2C_Controller_Initialize      
00000f71  usb_init                       
00000ffd  SPI_Initialize                 
00001085  UART_rxDMA_Initialize          
000010fd  current_source_2_select        
00001175  SPI_Transact                   
000011eb  UART_txDMA_Initialize          
0000125f  I2C_Controller_Start_Transmit  
000012d1  UART_Target_Initialize         
00001419  targetRxInProgressCb           
00001485  ads122c04_calibration          
000014ed  SYSCFG_DL_Daughter_I2C_init    
00001551  SYSCFG_DL_Master_I2C_init      
000015b5  UART_Target_AssignCallBacks    
00001619  uart_pin_init                  
000016dd  SYSCFG_DL_UART_0_init          
0000173d  SYSCFG_DL_UART_3_init          
0000179d  DL_I2C_fillControllerTXFIFO    
000017fb  Timer_Timeout_Time_Set         
00001855  getControllerStatus            
000018ad  AD4115_ReadID                  
00001901  DL_SPI_drainRXFIFO16           
00001955  DL_UART_drainRXFIFO            
000019a9  DL_UART_fillTXFIFO             
000019fd  reset_all                      
00001b39  DL_UART_init                   
00001b81  SYSCFG_DL_SPI_0_init           
00001bc9  ads122c04_init                 
00001c11  I2C_Controller_Start_Receive   
00001c59  DL_SPI_init                    
00001ce1  __aeabi_uidiv                  
00001ce1  __aeabi_uidivmod               
00001d5d  DL_I2C_flushTargetTXFIFO       
00001d99  SYSCFG_DL_init                 
00001dd5  __TI_auto_init_nobinit_nopinit 
00001e11  Delay_Timer_Get                
00001e85  Timer_Timeout_Start            
00001ebb  UART_Interface_Stop_Receive    
00001f25  SYSCFG_DL_TIMER_0_init         
00001f59  SYSCFG_DL_TIMER_1_init         
00001f8d  SYSCFG_DL_TIMER_2_init         
00001fc1  timerCallback                  
000020b9  targetRxDoneCb                 
000020e9  targetTxDoneCb                 
00002147  io_expander_init               
0000232d  app_init                       
00002359  SYSCFG_DL_SYSCTL_init          
00002383  Timer_Timeout_IRQ              
000023ad  Timer_Timeout_reStart          
000023d7  waitForControllerToIdle        
000025e1  targetTxInProgressCb           
00002609  _c_int00_noargs                
0000267d  DL_I2C_setClockConfig          
000026c9  Delay_Timer_IRQ                
000026ed  dac_set                        
00002799  memcmp                         
00002945  DL_Timer_setClockConfig        
0000297d  main                           
00002999  current_10ma_set               
00002ce5  i2c0_init                      
00002cfd  i2c1_init                      
00002e41  DL_SPI_setClockConfig          
00002e9b  DL_UART_setClockConfig         
00002ead  Delay_Timer_Start              
00002ebf  TI_memcpy_small                
00002ee1  I2C0_IRQHandler                
00002ef1  I2C1_IRQHandler                
00002f01  I2C_Controller_Transaction_Done
00002f11  SPI0_IRQHandler                
00002f21  TIMG0_IRQHandler               
00002f31  TIMG6_IRQHandler               
00002f41  TIMG7_IRQHandler               
00002f51  UART0_IRQHandler               
00002f61  UART3_IRQHandler               
00002f71  defaultUartCallBack            
00002f81  defaultUartInprogressCallback  
00002f91  __TI_zero_init                 
00002fa1  TI_memset_small                
00002fb1  __aeabi_memclr                 
00002fb1  __aeabi_memclr4                
00002fb1  __aeabi_memclr8                
00002fbd  db_board_init                  
00002fc9  defaultTimerSingleTriggerCB    
00002fd5  noActionController             
00002fe1  noActionSPIInterface           
00002fed  DL_Common_delayCycles          
00002ff7  io_expander_daughter_config    
00003001  __aeabi_memcpy                 
00003001  __aeabi_memcpy4                
00003001  __aeabi_memcpy8                
00003009  ADC0_IRQHandler                
00003009  ADC1_IRQHandler                
00003009  DMA_IRQHandler                 
00003009  Default_Handler                
00003009  GROUP0_IRQHandler              
00003009  GROUP1_IRQHandler              
00003009  HardFault_Handler              
00003009  NMI_Handler                    
00003009  PendSV_Handler                 
00003009  RTC_IRQHandler                 
00003009  SPI1_IRQHandler                
00003009  SVC_Handler                    
00003009  SysTick_Handler                
00003009  TIMA0_IRQHandler               
00003009  TIMA1_IRQHandler               
00003009  TIMG12_IRQHandler              
00003009  TIMG8_IRQHandler               
00003009  UART1_IRQHandler               
00003009  UART2_IRQHandler               
0000300d  Reset_Handler                  
00003021  _system_pre_init               
00003024  C$$EXIT                        
00003025  abort                          
000030a0  __TI_Handler_Table_Base        
000030a4  __TI_CINIT_Base                
000030a4  __TI_Handler_Table_Limit       
000030ac  __TI_CINIT_Limit               
000030ac  __TI_CINIT_Warm                
20200000  USB_DATA                       
20200000  __start___llvm_prf_bits        
20200000  __start___llvm_prf_cnts        
20200000  __stop___llvm_prf_bits         
20200000  __stop___llvm_prf_cnts         
202013ac  glUartTarget                   
202013f4  UART_MUX                       
20201428  USB_UART                       
2020145c  gUART_3Backup                  
2020148c  ADC                            
202014b0  UART_MUX_Timeout               
202014d4  USB_BUFFER                     
202014f8  USB_Timeout                    
2020151c  Daughter_I2C                   
2020153c  Master_MCU                     
2020157c  glUartTargetIndexFromTimerIndex
20207e00  __stack                        
20208000  __STACK_END                    
ffffffff  __TI_pprof_out_hndl            
ffffffff  __TI_prof_data_size            
ffffffff  __TI_prof_data_start           
ffffffff  __binit__                      
ffffffff  binit                          
UNDEFED   __mpu_init                     
UNDEFED   _system_post_cinit             

[172 symbols]
